; Function Attrs: mustprogress uwtable
define void @_ZN2cv3hal8gemm32fcEPKfmS2_mfS2_mfPfmiiii(ptr noundef %0, i64 noundef %1, ptr noundef %2, i64 noundef %3, float noundef %4, ptr noundef %5, i64 noundef %6, float noundef %7, ptr noundef %8, i64 noundef %9, i32 noundef %10, i32 noundef %11, i32 noundef %12, i32 noundef %13) local_unnamed_addr #3 personality ptr @__gxx_personality_v0 {
  %15 = alloca %"class.cv::utils::trace::details::Region", align 8
  %16 = alloca %"class.cv::utils::trace::details::Region", align 8
  call void @llvm.lifetime.start.p0(i64 16, ptr nonnull %16) #27
  call void @_ZN2cv5utils5trace7details6RegionC1ERKNS3_21LocationStaticStorageE(ptr noundef nonnull align 8 dereferenceable(12) %16, ptr noundef nonnull align 8 dereferenceable(32) @_ZZN2cv3hal8gemm32fcEPKfmS2_mfS2_mfPfmiiiiE25__cv_trace_location_fn312)
  call void @llvm.lifetime.start.p0(i64 16, ptr nonnull %15) #27
  invoke void @_ZN2cv5utils5trace7details6RegionC1ERKNS3_21LocationStaticStorageE(ptr noundef nonnull align 8 dereferenceable(12) %15, ptr noundef nonnull align 8 dereferenceable(32) @_ZZN2cv12cpu_baseline8gemm32fcEPKfmS2_mfS2_mfPfmiiiiE26__cv_trace_location_fn1360)
          to label %.noexc unwind label %26

.noexc:                                           ; preds = %14
  invoke fastcc void @_ZN2cv12cpu_baselineL12callGemmImplIfEEvPKT_mS4_mS2_S4_mS2_PS2_miiiii(ptr noundef %0, i64 noundef %1, ptr noundef %2, i64 noundef %3, float noundef %4, ptr noundef %5, i64 noundef %6, float noundef %7, ptr noundef %8, i64 noundef %9, i32 noundef %10, i32 noundef %11, i32 noundef %12, i32 noundef %13, i32 noundef 13)
          to label %17 unwind label %24

17:                                               ; preds = %.noexc
  %18 = getelementptr inbounds nuw i8, ptr %15, i64 8
  %19 = load i32, ptr %18, align 8, !tbaa !3
  %.not.i.i = icmp eq i32 %19, 0
  br i1 %.not.i.i, label %.critedge, label %20

20:                                               ; preds = %17
  invoke void @_ZN2cv5utils5trace7details6Region7destroyEv(ptr noundef nonnull align 8 dereferenceable(12) %15)
          to label %.critedge unwind label %21

21:                                               ; preds = %20
  %22 = landingpad { ptr, i32 }
          catch ptr null
  %23 = extractvalue { ptr, i32 } %22, 0
  call void @__clang_call_terminate(ptr %23) #28
  unreachable

24:                                               ; preds = %.noexc
  %25 = landingpad { ptr, i32 }
          cleanup
  call void @_ZN2cv5utils5trace7details6RegionD2Ev(ptr noundef nonnull align 8 dereferenceable(12) %15) #27
  call void @llvm.lifetime.end.p0(i64 16, ptr nonnull %15) #27
  br label %.body

26:                                               ; preds = %14
  %27 = landingpad { ptr, i32 }
          cleanup
  br label %.body

.critedge:                                        ; preds = %20, %17
  call void @llvm.lifetime.end.p0(i64 16, ptr nonnull %15) #27
  %28 = getelementptr inbounds nuw i8, ptr %16, i64 8
  %29 = load i32, ptr %28, align 8, !tbaa !3
  %.not.i = icmp eq i32 %29, 0
  br i1 %.not.i, label %_ZN2cv5utils5trace7details6RegionD2Ev.exit, label %30

30:                                               ; preds = %.critedge
  invoke void @_ZN2cv5utils5trace7details6Region7destroyEv(ptr noundef nonnull align 8 dereferenceable(12) %16)
          to label %_ZN2cv5utils5trace7details6RegionD2Ev.exit unwind label %31

31:                                               ; preds = %30
  %32 = landingpad { ptr, i32 }
          catch ptr null
  %33 = extractvalue { ptr, i32 } %32, 0
  call void @__clang_call_terminate(ptr %33) #28
  unreachable

_ZN2cv5utils5trace7details6RegionD2Ev.exit:       ; preds = %.critedge, %30
  call void @llvm.lifetime.end.p0(i64 16, ptr nonnull %16) #27
  ret void

.body:                                            ; preds = %26, %24
  %eh.lpad-body = phi { ptr, i32 } [ %27, %26 ], [ %25, %24 ]
  call void @_ZN2cv5utils5trace7details6RegionD2Ev(ptr noundef nonnull align 8 dereferenceable(12) %16) #27
  call void @llvm.lifetime.end.p0(i64 16, ptr nonnull %16) #27
  resume { ptr, i32 } %eh.lpad-body
}